; Function Attrs: nounwind uwtable
define internal i32 @dyn_buf_write(ptr noundef %0, ptr noundef readonly captures(none) %1, i32 noundef %2) #3 {
  %4 = load i32, ptr %0, align 8, !tbaa !83
  %5 = add i32 %4, %2
  %6 = icmp ult i32 %5, %4
  %7 = icmp slt i32 %5, 0
  %or.cond = or i1 %6, %7
  br i1 %or.cond, label %36, label %8

8:                                                ; preds = %3
  %9 = getelementptr inbounds nuw i8, ptr %0, i64 8
  %10 = load i32, ptr %9, align 8, !tbaa !84
  %11 = icmp ugt i32 %5, %10
  br i1 %11, label %12, label %25

12:                                               ; preds = %8
  %.not = icmp eq i32 %10, 0
  %. = select i1 %.not, i32 %5, i32 %10
  %13 = icmp samesign ugt i32 %5, %.
  br i1 %13, label %.lr.ph, label %._crit_edge

.lr.ph:                                           ; preds = %12, %.lr.ph
  %.03741 = phi i32 [ %16, %.lr.ph ], [ %., %12 ]
  %14 = lshr i32 %.03741, 1
  %15 = add nuw nsw i32 %.03741, 1
  %16 = add nuw i32 %15, %14
  %17 = icmp ugt i32 %5, %16
  br i1 %17, label %.lr.ph, label %._crit_edge, !llvm.loop !85

._crit_edge:                                      ; preds = %.lr.ph, %12
  %.037.lcssa = phi i32 [ %., %12 ], [ %16, %.lr.ph ]
  %18 = tail call i32 @llvm.umin.i32(i32 %.037.lcssa, i32 2147483647)
  %19 = getelementptr inbounds nuw i8, ptr %0, i64 16
  %20 = zext nneg i32 %18 to i64
  %21 = tail call i32 @av_reallocp(ptr noundef nonnull %19, i64 noundef %20) #14
  %22 = icmp sgt i32 %21, -1
  br i1 %22, label %.thread, label %23

.thread:                                          ; preds = %._crit_edge
  store i32 %18, ptr %9, align 8, !tbaa !84
  %.pre = load i32, ptr %0, align 8, !tbaa !83
  br label %25

23:                                               ; preds = %._crit_edge
  store i32 0, ptr %9, align 8, !tbaa !84
  %24 = getelementptr inbounds nuw i8, ptr %0, i64 4
  store i32 0, ptr %24, align 4, !tbaa !81
  br label %36

25:                                               ; preds = %.thread, %8
  %26 = phi i32 [ %.pre, %.thread ], [ %4, %8 ]
  %27 = getelementptr inbounds nuw i8, ptr %0, i64 16
  %28 = load ptr, ptr %27, align 8, !tbaa !82
  %29 = sext i32 %26 to i64
  %30 = getelementptr inbounds i8, ptr %28, i64 %29
  %31 = sext i32 %2 to i64
  tail call void @llvm.memcpy.p0.p0.i64(ptr align 1 %30, ptr align 1 %1, i64 %31, i1 false)
  store i32 %5, ptr %0, align 8, !tbaa !83
  %32 = getelementptr inbounds nuw i8, ptr %0, i64 4
  %33 = load i32, ptr %32, align 4, !tbaa !81
  %34 = icmp sgt i32 %5, %33
  br i1 %34, label %35, label %36

35:                                               ; preds = %25
  store i32 %5, ptr %32, align 4, !tbaa !81
  br label %36

36:                                               ; preds = %23, %25, %35, %3
  %.0 = phi i32 [ %21, %23 ], [ -34, %3 ], [ %2, %35 ], [ %2, %25 ]
  ret i32 %.0
}